target datalayout = "e-m:e-p270:32:32-p271:32:32-p272:64:64-i64:64-i128:128-f80:128-n8:16:32:64-S128"
target triple = "x86_64-pc-linux-gnu"

%class.QString = type { %struct.QArrayDataPointer }
%struct.QArrayDataPointer = type { ptr, ptr, i64 }
%class.FunnelTextDialog = type { %class.GeometryStateDialog, ptr, %struct._funnel_text_window_t, ptr, ptr }
%class.GeometryStateDialog = type { %class.QDialog, %class.QString }
%class.QDialog = type { %class.QWidget }
%class.QWidget = type { %class.QObject, %class.QPaintDevice.base, ptr }
%class.QObject = type { ptr, %class.QScopedPointer }
%class.QScopedPointer = type { ptr }
%class.QPaintDevice.base = type <{ ptr, i16 }>
%struct._funnel_text_window_t = type { ptr }
%class.Ui_FunnelTextDialog = type { ptr, ptr, ptr, ptr, ptr, ptr }

; Function Attrs: mustprogress uwtable
define void @_ZN16FunnelTextDialog9clearTextEv(ptr noundef nonnull align 8 dereferenceable(96) %0) #3 align 2 {
  %2 = alloca ptr, align 8
  store ptr %0, ptr %2, align 8
  %3 = load ptr, ptr %2, align 8
  %4 = getelementptr inbounds %class.FunnelTextDialog, ptr %3, i32 0, i32 1
  %5 = load ptr, ptr %4, align 8
  %6 = getelementptr inbounds %class.Ui_FunnelTextDialog, ptr %5, i32 0, i32 1
  %7 = load ptr, ptr %6, align 8
  call void @_ZN9QTextEdit5clearEv(ptr noundef nonnull align 8 dereferenceable(40) %7)
  ret void
}

; Function Attrs: mustprogress uwtable
define void @text_window_clear(ptr noundef %0) #3 {
  %2 = alloca ptr, align 8
  store ptr %0, ptr %2, align 8
  %3 = load ptr, ptr %2, align 8
  %4 = icmp ne ptr %3, null
  br i1 %4, label %5, label %9

5:                                                ; preds = %1
  %6 = load ptr, ptr %2, align 8
  %7 = getelementptr inbounds %struct._funnel_text_window_t, ptr %6, i32 0, i32 0
  %8 = load ptr, ptr %7, align 8
  call void @_ZN16FunnelTextDialog9clearTextEv(ptr noundef nonnull align 8 dereferenceable(96) %8)
  br label %9

9:                                                ; preds = %5, %1
  ret void
}