; Function Attrs: mustprogress uwtable
define void @text_window_clear(ptr noundef readonly %0) local_unnamed_addr #2 {
  %.not = icmp eq ptr %0, null
  br i1 %.not, label %8, label %2

2:                                                ; preds = %1
  %3 = load ptr, ptr %0, align 8
  %4 = getelementptr inbounds i8, ptr %3, i64 64
  %5 = load ptr, ptr %4, align 8
  %6 = getelementptr inbounds i8, ptr %5, i64 8
  %7 = load ptr, ptr %6, align 8
  tail call void @_ZN9QTextEdit5clearEv(ptr noundef nonnull align 8 dereferenceable(40) %7)
  br label %8

8:                                                ; preds = %2, %1
  ret void
}